; Function Attrs: mustprogress nounwind uwtable
define dso_local void @_ZN24cmInstallTargetGeneratorD2Ev(ptr noundef nonnull align 8 dereferenceable(282) %0) unnamed_addr #4 align 2 {
  store ptr getelementptr inbounds ({ [13 x ptr] }, ptr @_ZTV24cmInstallTargetGenerator, i64 0, i32 0, i64 2), ptr %0, align 8
  %2 = getelementptr inbounds i8, ptr %0, i64 240
  tail call void @_ZNSt7__cxx1112basic_stringIcSt11char_traitsIcESaIcEED1Ev(ptr noundef nonnull align 8 dereferenceable(32) %2) #19
  %3 = getelementptr inbounds i8, ptr %0, i64 200
  tail call void @_ZNSt7__cxx1112basic_stringIcSt11char_traitsIcESaIcEED1Ev(ptr noundef nonnull align 8 dereferenceable(32) %3) #19
  tail call void @_ZN18cmInstallGeneratorD2Ev(ptr noundef nonnull align 8 dereferenceable(200) %0) #19
  ret void
}